(dp0
S'2016.10.07 08:40:26'
p1
(dp2
S'GTX 980TI'
p3
F5524.38
sS'GTX 1080'
p4
F5984.58
ssS'2016.10.07 08:40:27'
p5
(dp6
S'GTX 1080'
p7
F4332.82
sS'GTX 980TI'
p8
F5362.73
ssS'2016.10.07 08:40:28'
p9
(dp10
S'GTX 1080'
p11
F5222.31
sS'GTX 980TI'
p12
F2463.52
ss.