(dp0
S'2016.10.12 12:27:26'
p1
(dp2
S'8. Gigabyte GTX 970 ECO'
p3
F2260.53
sS'4. EVGA GTX 970 Hybrid'
p4
F5493.05
sS'2. EVGA GTX 980 Ti Hybrid'
p5
F3615.91
sS'7. Gainward GeForce GTX 980'
p6
F2740.41
sS'1. Gigabyte GTX 1080 Xtreme'
p7
F3207.19
sS'6. MSI GTX 980 Ti ECO'
p8
F2617.21
sS'3. EVGA GTX 980 Hybrid'
p9
F2265.49
sS'5. Palit GTX 1080 ECO'
p10
F4261.6
ssS'2016.10.12 12:30:08'
p11
(dp12
S'8. Gigabyte GTX 970 ECO'
p13
F4986.99
sS'4. EVGA GTX 970 Hybrid'
p14
F2742.2
sS'2. EVGA GTX 980 Ti Hybrid'
p15
F4173.69
sS'7. Gainward GeForce GTX 980'
p16
F2368.16
sS'3. EVGA GTX 980 Hybrid'
p17
F4881.0
sS'6. MSI GTX 980 Ti ECO'
p18
F2427.13
sS'1. Gigabyte GTX 1080 Xtreme'
p19
F2714.58
sS'5. Palit GTX 1080 ECO'
p20
F5373.49
ssS'2016.10.12 12:30:07'
p21
(dp22
S'6. MSI GTX 980 Ti ECO'
p23
F5901.03
sS'8. Gigabyte GTX 970 ECO'
p24
F4553.77
sS'4. EVGA GTX 970 Hybrid'
p25
F3560.95
sS'2. EVGA GTX 980 Ti Hybrid'
p26
F5973.76
sS'7. Gainward GeForce GTX 980'
p27
F2427.71
sS'3. EVGA GTX 980 Hybrid'
p28
F4080.4
sS'1. Gigabyte GTX 1080 Xtreme'
p29
F2576.96
sS'5. Palit GTX 1080 ECO'
p30
F5943.99
ssS'2016.10.12 12:30:42'
p31
(dp32
S'5. Palit GTX 1080 ECO'
p33
F5440.04
sS'8. Gigabyte GTX 970 ECO'
p34
F4589.05
sS'4. EVGA GTX 970 Hybrid'
p35
F3411.54
sS'6. MSI GTX 980 Ti ECO'
p36
F4280.64
sS'2. EVGA GTX 980 Ti Hybrid'
p37
F4082.36
sS'3. EVGA GTX 980 Hybrid'
p38
F5345.56
sS'7. Gainward GeForce GTX 980'
p39
F5317.83
sS'1. Gigabyte GTX 1080 Xtreme'
p40
F5403.39
ssS'2016.10.12 12:30:09'
p41
(dp42
S'8. Gigabyte GTX 970 ECO'
p43
F5691.35
sS'4. EVGA GTX 970 Hybrid'
p44
F4711.81
sS'2. EVGA GTX 980 Ti Hybrid'
p45
F4133.52
sS'7. Gainward GeForce GTX 980'
p46
F3701.09
sS'1. Gigabyte GTX 1080 Xtreme'
p47
F4284.96
sS'6. MSI GTX 980 Ti ECO'
p48
F2444.58
sS'3. EVGA GTX 980 Hybrid'
p49
F4765.61
sS'5. Palit GTX 1080 ECO'
p50
F2041.49
ss.