(dp0
S'2016.04.2 16:00:00'
p1
(dp2
S'8. Gigabyte GTX 970 ECO'
p3
F1352.01
sS'4. EVGA GTX 970 Hybrid'
p4
I1768
sS'2. EVGA GTX 980 Ti Hybrid'
p5
F3205.55
sS'7. Gainward GeForce GTX 980'
p6
I1999
sS'3. EVGA GTX 980 Hybrid'
p7
F2807.7
sS'6. MSI GTX 980 Ti ECO'
p8
F2870.01
ssS'2016.05.12 16:00:00'
p9
(dp10
g3
F1373.01
sg4
F1762.88
sg5
I3101
sg6
F2201.5
sg7
F2517.74
sg8
I2900
ssS'2016.04.1 16:00:00'
p11
(dp12
g3
F1352.01
sg4
I1791
sg5
F3205.55
sg6
I1999
sg7
F2807.7
sg8
F2870.01
ssS'2016.03.30 16:00:00'
p13
(dp14
g3
F1364.01
sg4
I1791
sg5
F3244.01
sg6
I1999
sg7
F2817.7
sg8
F2906.61
ssS'2016.04.26 16:00:00'
p15
(dp16
g3
F1381.93
sg4
I1855
sg5
I2998
sg6
F2205.04
sg7
F2535.3
sg8
F2932.99
ssS'2016.05.6 16:00:00'
p17
(dp18
g3
F1363.01
sg4
I1842
sg5
F3134.84
sg6
F2203.01
sg7
F2517.77
sg8
I2850
ssS'2016.05.21 16:00:00'
p19
(dp20
g3
F1389.01
sg4
F1637.01
sg5
F3100.96
sg6
F2144.33
sg7
F2517.7
sg8
F2949.98
ssS'2016.04.25 16:00:00'
p21
(dp22
g3
F1353.99
sg4
I1826
sg5
F3135.99
sg6
I2356
sg7
F2535.31
sg8
I2900
ssS'2016.05.17 16:00:00'
p23
(dp24
g3
F1378.71
sg4
F1637.03
sg5
F3100.98
sg6
F2144.35
sg7
F2517.72
sg8
I2900
ssS'2016.05.23 16:00:00'
p25
(dp26
g3
F1388.99
sg4
I1637
sg5
F3100.95
sg6
F2144.32
sg7
F2517.69
sg8
I2950
ssS'2016.09.4 16:00:00'
p27
(dp28
g8
I1655
sg3
F1364.48
sg4
F1924.99
sg7
F1828.01
sg5
F3032.07
sS'1. Gigabyte GTX 1080 Xtreme'
p29
F4293.4
sg6
I2161
sS'5. Palit GTX 1080 ECO'
p30
I3099
ssS'2016.06.10 16:00:00'
p31
(dp32
g3
I1329
sg4
F1618.89
sg5
F3063.44
sg6
F2137.01
sg7
F2448.99
sg8
F2849.65
ssS'2016.05.16 16:00:00'
p33
(dp34
g3
F1388.66
sg4
F1637.52
sg5
F3100.98
sg6
F2149.01
sg7
F2517.72
sg8
I2900
ssS'2016.04.22 16:00:00'
p35
(dp36
g3
I1354
sg4
I1809
sg5
F3089.01
sg6
I1999
sg7
F2535.32
sg8
F2866.01
ssS'2016.05.27 16:00:00'
p37
(dp38
g3
F1398.99
sg4
F1636.98
sg5
F3100.93
sg6
F2144.3
sg7
F2517.67
sg8
F2975.49
ssS'2016.04.16 16:00:00'
p39
(dp40
g3
F1364.81
sg4
I1814
sg5
F3078.99
sg6
I1999
sg7
F2584.39
sg8
F2891.01
ssS'2016.03.31 16:00:00'
p41
(dp42
g3
F1461.59
sg4
I1791
sg5
F3336.25
sg6
I1999
sg7
F2807.71
sg8
F2864.66
ssS'2016.03.27 16:00:00'
p43
(dp44
g3
F1364.74
sg4
I1798
sg5
I3247
sg6
I1999
sg7
F2817.72
sg8
F2923.39
ssS'2016.04.18 16:00:00'
p45
(dp46
g3
F1364.8
sg4
I1814
sg5
F3078.98
sg6
I1999
sg7
F2584.38
sg8
F2891.01
ssS'2016.05.11 16:00:00'
p47
(dp48
g3
F1373.01
sg4
F1766.15
sg5
F3101.65
sg6
F2202.01
sg7
F2517.75
sg8
I2900
ssS'2016.04.5 16:00:00'
p49
(dp50
g3
F1336.01
sg4
I1768
sg5
F3019.01
sg6
I1999
sg7
F2807.68
sg8
F2729.01
ssS'2016.09.27 16:00:00'
p51
(dp52
g8
F2532.3
sg3
F1437.45
sg4
F1407.3
sg7
F3010.21
sg5
I1958
sg29
I3894
sg6
I2161
sg30
I3099
ssS'2016.05.2 16:00:00'
p53
(dp54
g3
F1373.8
sg4
I1842
sg5
F3081.01
sg6
F2193.88
sg7
F2535.26
sg8
F2898.7
ssS'2016.05.18 16:00:00'
p55
(dp56
g3
F1378.7
sg4
F1629.81
sg5
F3100.97
sg6
F2144.07
sg7
F2517.71
sg8
F2897.5
ssS'2016.09.19 16:00:00'
p57
(dp58
g8
F2799.01
sg3
F1364.48
sg4
F1882.46
sg7
F3012.21
sg5
F2114.83
sg29
I3894
sg6
I2161
sg30
I3099
ssS'2016.04.10 16:00:00'
p59
(dp60
g3
F1351.01
sg4
I1776
sg5
F3148.5
sg6
I1999
sg7
F2739.68
sg8
F2775.01
ssS'2016.04.9 16:00:00'
p61
(dp62
g3
F1351.01
sg4
I1776
sg5
F3148.5
sg6
I1999
sg7
F2739.68
sg8
F2775.01
ssS'2016.05.14 16:00:00'
p63
(dp64
g3
I1373
sg4
F1644.85
sg5
F3100.99
sg6
F2197.01
sg7
F2517.73
sg8
I2900
ssS'2016.09.13 16:00:00'
p65
(dp66
g8
I1655
sg3
F1364.48
sg4
F1925.01
sg7
I2791
sg5
F1936.18
sg29
I3894
sg6
I2161
sg30
I3099
ssS'2016.06.3 16:00:00'
p67
(dp68
g3
F1394.86
sg4
F1636.95
sg5
F3100.9
sg6
F2144.27
sg7
F2517.64
sg8
F2948.5
ssS'2016.09.24 16:00:00'
p69
(dp70
g8
F2532.3
sg3
F1437.45
sg4
F1303.07
sg7
F3010.71
sg5
I1958
sg29
I3894
sg6
I2161
sg30
I3099
ssS'2016.04.21 16:00:00'
p71
(dp72
g3
F1364.8
sg4
I1814
sg5
F3076.96
sg6
I1999
sg7
F2584.35
sg8
F2864.01
ssS'2016.10.2 16:00:00'
p73
(dp74
g8
I1859
sg3
F1437.45
sg4
F1641.45
sg7
F3009.21
sg5
I2071
sg29
I3894
sg6
I2161
sg30
I3099
ssS'2016.04.23 16:00:00'
p75
(dp76
g3
I1354
sg4
I1826
sg5
F3089.01
sg6
I1999
sg7
F2535.32
sg8
F2866.01
ssS'2016.04.3 16:00:00'
p77
(dp78
g3
F1352.01
sg4
I1768
sg5
F3205.55
sg6
I1999
sg7
F2807.7
sg8
F2870.01
ssS'2016.05.13 16:00:00'
p79
(dp80
g3
I1373
sg4
F1644.85
sg5
F3100.99
sg6
F2197.01
sg7
F2517.73
sg8
I2900
ssS'2016.06.26 16:00:00'
p81
(dp82
g3
I1249
sg4
F1537.9
sg5
F2598.99
sg6
F1924.93
sg7
I2162
sg8
F2298.94
ssS'2016.03.29 16:00:00'
p83
(dp84
g3
F1369.01
sg4
I1798
sg5
F3246.98
sg6
I1999
sg7
F2817.7
sg8
F2927.05
ssS'2016.08.9 16:00:00'
p85
(dp86
g3
I1375
sg4
F1571.79
sg5
I2807
sg6
F2362.63
sg7
F1813.47
sg8
F2499.01
ssS'2016.07.10 16:00:00'
p87
(dp88
g3
F1302.49
sg4
F1532.35
sg5
F2543.51
sg6
F2215.99
sg7
F2185.76
sg8
F2331.61
ssS'2016.04.14 16:00:00'
p89
(dp90
g3
F1366.62
sg4
I1808
sg5
I3029
sg6
I1999
sg7
F2584.39
sg8
F2889.07
ssS'2016.04.15 16:00:00'
p91
(dp92
g3
F1364.81
sg4
I1815
sg5
F3078.99
sg6
I1999
sg7
F2584.39
sg8
F2891.01
ssS'2016.09.3 16:00:00'
p93
(dp94
g3
F1364.48
sg4
F1924.99
sg5
F3032.07
sg6
I2161
sg7
F1828.01
sg8
I1655
ssS'2016.03.28 16:00:00'
p95
(dp96
g3
F1372.01
sg4
I1798
sg5
F3246.99
sg6
I1999
sg7
F2817.71
sg8
F2797.01
ssS'2016.06.18 16:00:00'
p97
(dp98
g3
I1249
sg4
F1549.12
sg5
F2573.99
sg6
F1924.96
sg7
F2148.19
sg8
F2336.5
ssS'2016.04.7 16:00:00'
p99
(dp100
g3
F1355.01
sg4
I1776
sg5
F3149.01
sg6
I1999
sg7
F2774.46
sg8
F2743.01
ssS'2016.04.4 16:00:00'
p101
(dp102
g3
F1360.01
sg4
I1768
sg5
F3198.22
sg6
I1999
sg7
F2807.69
sg8
F2850.01
ssS'2016.03.23 16:00:00'
p103
(dp104
g3
F1361.45
sg4
I1794
sg5
F3248.47
sg6
I1999
sg7
F2646.96
sg8
F2779.01
ssS'2016.05.9 16:00:00'
p105
(dp106
g3
F1372.81
sg4
I1842
sg5
F3134.83
sg6
F2203.01
sg7
F2517.76
sg8
I2900
ssS'2016.05.29 16:00:00'
p107
(dp108
g3
F1398.99
sg4
F1636.98
sg5
F3100.93
sg6
F2144.3
sg7
F2517.67
sg8
F2975.49
ss.